; Function Attrs: nounwind uwtable
define ptr @l_Lean_Meta_getElimExprInfo___lambda__1(ptr noundef %0, ptr noundef %1, ptr noundef %2, ptr noundef readonly captures(none) %3, ptr noundef %4, ptr noundef %5, ptr noundef %6, ptr noundef %7, ptr noundef %8, ptr noundef %9) local_unnamed_addr #1 {
  %11 = tail call ptr @l___private_Lean_Expr_0__Lean_Expr_getAppNumArgsAux(ptr noundef %4, ptr noundef nonnull inttoptr (i64 1 to ptr)) #5
  %12 = load ptr, ptr @l_Lean_Meta_getElimExprInfo___lambda__1___closed__1, align 8, !tbaa !9
  %13 = ptrtoint ptr %11 to i64
  %14 = and i64 %13, 1
  %.not = icmp eq i64 %14, 0
  br i1 %.not, label %15, label %21

15:                                               ; preds = %10
  %.val.i = load i32, ptr %11, align 4, !tbaa !4
  %16 = icmp sgt i32 %.val.i, 0
  br i1 %16, label %17, label %19, !prof !11

17:                                               ; preds = %15
  %18 = add nuw i32 %.val.i, 1
  store i32 %18, ptr %11, align 4, !tbaa !4
  br label %27

19:                                               ; preds = %15
  %.not.i24 = icmp eq i32 %.val.i, 0
  br i1 %.not.i24, label %27, label %20

20:                                               ; preds = %19
  tail call void @lean_inc_ref_cold(ptr noundef nonnull %11) #5
  br label %27

21:                                               ; preds = %10
  %22 = tail call ptr @lean_mk_array(ptr noundef %11, ptr noundef %12) #5
  %23 = icmp ult ptr %11, inttoptr (i64 2 to ptr)
  br i1 %23, label %lean_dec.exit, label %24

24:                                               ; preds = %21
  %25 = add i64 %13, -2
  %26 = inttoptr i64 %25 to ptr
  br label %lean_dec.exit

27:                                               ; preds = %20, %19, %17
  %28 = tail call ptr @lean_mk_array(ptr noundef nonnull %11, ptr noundef %12) #5
  %29 = tail call ptr @lean_nat_big_sub(ptr noundef nonnull %11, ptr noundef nonnull inttoptr (i64 3 to ptr)) #5
  %30 = load i32, ptr %11, align 4, !tbaa !4
  %31 = icmp sgt i32 %30, 1
  br i1 %31, label %32, label %34, !prof !11

32:                                               ; preds = %27
  %33 = add nsw i32 %30, -1
  store i32 %33, ptr %11, align 4, !tbaa !4
  br label %lean_dec.exit

34:                                               ; preds = %27
  %.not.i = icmp eq i32 %30, 0
  br i1 %.not.i, label %lean_dec.exit, label %35

35:                                               ; preds = %34
  tail call void @lean_dec_ref_cold(ptr noundef nonnull %11) #5
  br label %lean_dec.exit

lean_dec.exit:                                    ; preds = %24, %21, %35, %34, %32
  %.1.i29 = phi ptr [ %29, %32 ], [ %29, %34 ], [ %29, %35 ], [ inttoptr (i64 1 to ptr), %21 ], [ %26, %24 ]
  %36 = phi ptr [ %28, %32 ], [ %28, %34 ], [ %28, %35 ], [ %22, %21 ], [ %22, %24 ]
  %37 = ptrtoint ptr %4 to i64
  %38 = and i64 %37, 1
  %.not30 = icmp eq i64 %38, 0
  br i1 %.not30, label %39, label %lean_inc.exit

39:                                               ; preds = %lean_dec.exit
  %.val.i25 = load i32, ptr %4, align 4, !tbaa !4
  %40 = icmp sgt i32 %.val.i25, 0
  br i1 %40, label %41, label %43, !prof !11

41:                                               ; preds = %39
  %42 = add nuw i32 %.val.i25, 1
  store i32 %42, ptr %4, align 4, !tbaa !4
  br label %lean_inc.exit

43:                                               ; preds = %39
  %.not.i26 = icmp eq i32 %.val.i25, 0
  br i1 %.not.i26, label %lean_inc.exit, label %44

44:                                               ; preds = %43
  tail call void @lean_inc_ref_cold(ptr noundef nonnull %4) #5
  br label %lean_inc.exit

lean_inc.exit:                                    ; preds = %44, %43, %41, %lean_dec.exit
  %45 = tail call ptr @l_Lean_Expr_withAppAux___at_Lean_Meta_getElimExprInfo___spec__6(ptr noundef %0, ptr noundef %1, ptr noundef %2, ptr noundef %3, ptr noundef %4, ptr noundef %4, ptr noundef %36, ptr noundef %.1.i29, ptr noundef %5, ptr noundef %6, ptr noundef %7, ptr noundef %8, ptr noundef %9)
  ret ptr %45
}